target datalayout = "e-m:e-p270:32:32-p271:32:32-p272:64:64-i64:64-i128:128-f80:128-n8:16:32:64-S128"
target triple = "x86_64-pc-linux-gnu"

%"struct.LIEF::MachO::ChainedPointerAnalysis::union_pointer_t" = type { i32, %union.anon.8 }
%union.anon.8 = type { %"struct.LIEF::MachO::ChainedPointerAnalysis::dyld_chained_ptr_arm64e_rebase_t" }
%"struct.LIEF::MachO::ChainedPointerAnalysis::dyld_chained_ptr_arm64e_rebase_t" = type { i64 }

; Function Attrs: mustprogress nounwind uwtable
define noundef zeroext i1 @_ZNK4LIEF5MachO22ChainedPointerAnalysis15union_pointer_t7is_authEv(ptr noundef nonnull align 8 dereferenceable(16) %0) #0 align 2 {
  %2 = alloca i1, align 1
  %3 = alloca ptr, align 8
  store ptr %0, ptr %3, align 8, !tbaa !78
  %4 = load ptr, ptr %3, align 8
  %5 = getelementptr inbounds nuw %"struct.LIEF::MachO::ChainedPointerAnalysis::union_pointer_t", ptr %4, i32 0, i32 0
  %6 = load i32, ptr %5, align 8, !tbaa !72
  switch i32 %6, label %38 [
    i32 1, label %7
    i32 2, label %12
    i32 3, label %17
    i32 4, label %22
    i32 6, label %27
    i32 7, label %32
    i32 5, label %37
    i32 8, label %37
    i32 9, label %37
    i32 10, label %37
    i32 11, label %37
    i32 12, label %37
    i32 13, label %37
    i32 0, label %37
  ]

7:                                                ; preds = %1
  %8 = getelementptr inbounds nuw %"struct.LIEF::MachO::ChainedPointerAnalysis::union_pointer_t", ptr %4, i32 0, i32 1
  %9 = load i64, ptr %8, align 8
  %10 = lshr i64 %9, 63
  %11 = icmp ne i64 %10, 0
  store i1 %11, ptr %2, align 1
  br label %39

12:                                               ; preds = %1
  %13 = getelementptr inbounds nuw %"struct.LIEF::MachO::ChainedPointerAnalysis::union_pointer_t", ptr %4, i32 0, i32 1
  %14 = load i64, ptr %13, align 8
  %15 = lshr i64 %14, 63
  %16 = icmp ne i64 %15, 0
  store i1 %16, ptr %2, align 1
  br label %39

17:                                               ; preds = %1
  %18 = getelementptr inbounds nuw %"struct.LIEF::MachO::ChainedPointerAnalysis::union_pointer_t", ptr %4, i32 0, i32 1
  %19 = load i64, ptr %18, align 8
  %20 = lshr i64 %19, 63
  %21 = icmp ne i64 %20, 0
  store i1 %21, ptr %2, align 1
  br label %39

22:                                               ; preds = %1
  %23 = getelementptr inbounds nuw %"struct.LIEF::MachO::ChainedPointerAnalysis::union_pointer_t", ptr %4, i32 0, i32 1
  %24 = load i64, ptr %23, align 8
  %25 = lshr i64 %24, 63
  %26 = icmp ne i64 %25, 0
  store i1 %26, ptr %2, align 1
  br label %39

27:                                               ; preds = %1
  %28 = getelementptr inbounds nuw %"struct.LIEF::MachO::ChainedPointerAnalysis::union_pointer_t", ptr %4, i32 0, i32 1
  %29 = load i64, ptr %28, align 8
  %30 = lshr i64 %29, 63
  %31 = icmp ne i64 %30, 0
  store i1 %31, ptr %2, align 1
  br label %39

32:                                               ; preds = %1
  %33 = getelementptr inbounds nuw %"struct.LIEF::MachO::ChainedPointerAnalysis::union_pointer_t", ptr %4, i32 0, i32 1
  %34 = load i64, ptr %33, align 8
  %35 = lshr i64 %34, 63
  %36 = icmp ne i64 %35, 0
  store i1 %36, ptr %2, align 1
  br label %39

37:                                               ; preds = %1, %1, %1, %1, %1, %1, %1, %1
  store i1 false, ptr %2, align 1
  br label %39

38:                                               ; preds = %1
  store i1 false, ptr %2, align 1
  br label %39

39:                                               ; preds = %38, %37, %32, %27, %22, %17, %12, %7
  %40 = load i1, ptr %2, align 1
  ret i1 %40
}