; Function Attrs: mustprogress nofree norecurse nosync nounwind willreturn memory(argmem: read) uwtable
define noundef zeroext i1 @_ZNK4LIEF5MachO22ChainedPointerAnalysis15union_pointer_t7is_authEv(ptr noundef nonnull readonly align 8 captures(none) dereferenceable(16) %0) local_unnamed_addr #2 align 2 {
  %2 = load i32, ptr %0, align 8, !tbaa !190
  switch i32 %2, label %27 [
    i32 1, label %3
    i32 2, label %7
    i32 3, label %11
    i32 4, label %15
    i32 6, label %19
    i32 7, label %23
  ]

3:                                                ; preds = %1
  %4 = getelementptr inbounds nuw i8, ptr %0, i64 8
  %5 = load i64, ptr %4, align 8
  %6 = icmp slt i64 %5, 0
  br label %27

7:                                                ; preds = %1
  %8 = getelementptr inbounds nuw i8, ptr %0, i64 8
  %9 = load i64, ptr %8, align 8
  %10 = icmp slt i64 %9, 0
  br label %27

11:                                               ; preds = %1
  %12 = getelementptr inbounds nuw i8, ptr %0, i64 8
  %13 = load i64, ptr %12, align 8
  %14 = icmp slt i64 %13, 0
  br label %27

15:                                               ; preds = %1
  %16 = getelementptr inbounds nuw i8, ptr %0, i64 8
  %17 = load i64, ptr %16, align 8
  %18 = icmp slt i64 %17, 0
  br label %27

19:                                               ; preds = %1
  %20 = getelementptr inbounds nuw i8, ptr %0, i64 8
  %21 = load i64, ptr %20, align 8
  %22 = icmp slt i64 %21, 0
  br label %27

23:                                               ; preds = %1
  %24 = getelementptr inbounds nuw i8, ptr %0, i64 8
  %25 = load i64, ptr %24, align 8
  %26 = icmp slt i64 %25, 0
  br label %27

27:                                               ; preds = %1, %23, %19, %15, %11, %7, %3
  %.0 = phi i1 [ %26, %23 ], [ %22, %19 ], [ %18, %15 ], [ %14, %11 ], [ %10, %7 ], [ %6, %3 ], [ false, %1 ]
  ret i1 %.0
}